; Function Attrs: mustprogress nofree norecurse nosync nounwind willreturn memory(argmem: read) uwtable
define hidden noundef zeroext i1 @_ZNK3sat6solver9should_gcEv(ptr nocapture noundef nonnull readonly align 8 dereferenceable(4408) %this) local_unnamed_addr #3 align 2 {
entry:
  %m_conflicts_since_gc = getelementptr inbounds i8, ptr %this, i64 4208
  %0 = load i32, ptr %m_conflicts_since_gc, align 8
  %m_gc_threshold = getelementptr inbounds i8, ptr %this, i64 4212
  %1 = load i32, ptr %m_gc_threshold, align 4
  %cmp = icmp ugt i32 %0, %1
  br i1 %cmp, label %land.rhs, label %land.end

land.rhs:                                         ; preds = %entry
  %m_gc_strategy = getelementptr inbounds i8, ptr %this, i64 316
  %2 = load i32, ptr %m_gc_strategy, align 4
  %cmp2.not = icmp eq i32 %2, 0
  br i1 %cmp2.not, label %lor.rhs, label %land.end

lor.rhs:                                          ; preds = %land.rhs
  %m_scope_lvl.i = getelementptr inbounds i8, ptr %this, i64 3756
  %3 = load i32, ptr %m_scope_lvl.i, align 4
  %cmp.i = icmp eq i32 %3, 0
  br label %land.end

land.end:                                         ; preds = %land.rhs, %lor.rhs, %entry
  %4 = phi i1 [ false, %entry ], [ true, %land.rhs ], [ %cmp.i, %lor.rhs ]
  ret i1 %4
}